target datalayout = "e-m:e-p270:32:32-p271:32:32-p272:64:64-i64:64-i128:128-f80:128-n8:16:32:64-S128"
target triple = "x86_64-pc-linux-gnu"

%struct.rb_hook_list_struct = type { ptr, i32, i32, i8, i8 }
%struct.rb_ractor_pub = type { i64, i32, %struct.rb_hook_list_struct }
%struct.rb_execution_context_struct = type { ptr, i64, ptr, ptr, i32, i32, ptr, ptr, ptr, i64, i64, i64, ptr, i64, ptr, i64, i64, i8, i8, i64, %struct.anon.12 }
%struct.anon.12 = type { ptr, ptr, i64, [1 x %struct.__jmp_buf_tag] }
%struct.__jmp_buf_tag = type { [8 x i64], i32, %struct.__sigset_t }
%struct.__sigset_t = type { [16 x i64] }
%struct.rb_thread_struct = type { %struct.ccan_list_node, i64, ptr, ptr, ptr, ptr, %struct.rb_thread_sched_item, i8, i32, i64, ptr, i64, i64, i8, i8, i32, ptr, i64, i64, i64, i64, %union.pthread_mutex_t, %struct.rb_unblock_callback, i64, ptr, %struct.ccan_list_head, ptr, %union.anon.9, i32, i64, ptr, i64, i32, i64, ptr, %struct.rb_ext_config }
%struct.ccan_list_node = type { ptr, ptr }
%struct.rb_thread_sched_item = type { %struct.anon.7, %struct.rb_thread_sched_waiting, i8, i8, ptr, ptr }
%struct.anon.7 = type { %struct.ccan_list_node, %struct.ccan_list_node, %struct.ccan_list_node, %struct.ccan_list_node, %struct.ccan_list_node }
%struct.rb_thread_sched_waiting = type { i32, %struct.anon.8, %struct.ccan_list_node }
%struct.anon.8 = type { i64, i32, i32 }
%union.pthread_mutex_t = type { %struct.__pthread_mutex_s }
%struct.__pthread_mutex_s = type { i32, i32, i32, i32, i32, i16, i16, %struct.__pthread_internal_list }
%struct.__pthread_internal_list = type { ptr, ptr }
%struct.rb_unblock_callback = type { ptr, ptr }
%struct.ccan_list_head = type { %struct.ccan_list_node }
%union.anon.9 = type { %struct.anon.10 }
%struct.anon.10 = type { i64, i64, i32 }
%struct.rb_ext_config = type { i8 }

@ruby_vm_event_enabled_global_flags = external global i32, align 4
@ruby_single_main_ractor = external global ptr, align 8

; Function Attrs: inlinehint nounwind sspstrong uwtable
define internal ptr @rb_ec_thread_ptr(ptr noundef %0) #7 {
  %2 = alloca ptr, align 8
  store ptr %0, ptr %2, align 8, !tbaa !29
  %3 = load ptr, ptr %2, align 8, !tbaa !29
  %4 = getelementptr inbounds nuw %struct.rb_execution_context_struct, ptr %3, i32 0, i32 7
  %5 = load ptr, ptr %4, align 8, !tbaa !204
  ret ptr %5
}

; Function Attrs: inlinehint nounwind sspstrong uwtable
define internal ptr @rb_ec_ractor_ptr(ptr noundef %0) #7 {
  %2 = alloca ptr, align 8
  %3 = alloca ptr, align 8
  %4 = alloca ptr, align 8
  %5 = alloca i32, align 4
  store ptr %0, ptr %3, align 8, !tbaa !29
  call void @llvm.lifetime.start.p0(i64 8, ptr %4) #5
  %6 = load ptr, ptr %3, align 8, !tbaa !29
  %7 = call ptr @rb_ec_thread_ptr(ptr noundef %6)
  store ptr %7, ptr %4, align 8, !tbaa !186
  %8 = load ptr, ptr %4, align 8, !tbaa !186
  %9 = icmp ne ptr %8, null
  br i1 %9, label %10, label %14

10:                                               ; preds = %1
  %11 = load ptr, ptr %4, align 8, !tbaa !186
  %12 = getelementptr inbounds nuw %struct.rb_thread_struct, ptr %11, i32 0, i32 2
  %13 = load ptr, ptr %12, align 8, !tbaa !187
  store ptr %13, ptr %2, align 8
  store i32 1, ptr %5, align 4
  br label %15

14:                                               ; preds = %1
  store ptr null, ptr %2, align 8
  store i32 1, ptr %5, align 4
  br label %15

15:                                               ; preds = %14, %10
  call void @llvm.lifetime.end.p0(i64 8, ptr %4) #5
  %16 = load ptr, ptr %2, align 8
  ret ptr %16
}

; Function Attrs: inlinehint nounwind sspstrong uwtable
define internal ptr @rb_ec_ractor_hooks(ptr noundef %0) #7 {
  %2 = alloca ptr, align 8
  %3 = alloca ptr, align 8
  store ptr %0, ptr %2, align 8, !tbaa !29
  call void @llvm.lifetime.start.p0(i64 8, ptr %3) #5
  %4 = load ptr, ptr %2, align 8, !tbaa !29
  %5 = call ptr @rb_ec_ractor_ptr(ptr noundef %4)
  store ptr %5, ptr %3, align 8, !tbaa !37
  %6 = load ptr, ptr %3, align 8, !tbaa !37
  %7 = getelementptr inbounds nuw %struct.rb_ractor_pub, ptr %6, i32 0, i32 2
  call void @llvm.lifetime.end.p0(i64 8, ptr %3) #5
  ret ptr %7
}

; Function Attrs: inlinehint nounwind sspstrong uwtable
define internal zeroext i1 @rb_multi_ractor_p() #7 {
  %1 = alloca i1, align 1
  %2 = load ptr, ptr @ruby_single_main_ractor, align 8, !tbaa !35
  %3 = icmp ne ptr %2, null
  %4 = xor i1 %3, true
  %5 = xor i1 %4, true
  %6 = zext i1 %5 to i32
  %7 = sext i32 %6 to i64
  %8 = call i64 @llvm.expect.i64(i64 %7, i64 1)
  %9 = icmp ne i64 %8, 0
  br i1 %9, label %10, label %11

10:                                               ; preds = %0
  store i1 false, ptr %1, align 1
  br label %12

11:                                               ; preds = %0
  store i1 true, ptr %1, align 1
  br label %12

12:                                               ; preds = %11, %10
  %13 = load i1, ptr %1, align 1
  ret i1 %13
}

; Function Attrs: nounwind sspstrong uwtable
define hidden zeroext i1 @rb_c_method_tracing_currently_enabled(ptr noundef %0) #0 {
  %2 = alloca ptr, align 8
  %3 = alloca i32, align 4
  store ptr %0, ptr %2, align 8, !tbaa !29
  call void @llvm.lifetime.start.p0(i64 4, ptr %3) #5
  %4 = call zeroext i1 @rb_multi_ractor_p()
  br i1 %4, label %5, label %7

5:                                                ; preds = %1
  %6 = load i32, ptr @ruby_vm_event_enabled_global_flags, align 4, !tbaa !11
  store i32 %6, ptr %3, align 4, !tbaa !11
  br label %12

7:                                                ; preds = %1
  %8 = load ptr, ptr %2, align 8, !tbaa !29
  %9 = call ptr @rb_ec_ractor_hooks(ptr noundef %8)
  %10 = getelementptr inbounds nuw %struct.rb_hook_list_struct, ptr %9, i32 0, i32 1
  %11 = load i32, ptr %10, align 8, !tbaa !31
  store i32 %11, ptr %3, align 4, !tbaa !11
  br label %12

12:                                               ; preds = %7, %5
  %13 = load i32, ptr %3, align 4, !tbaa !11
  %14 = and i32 %13, 96
  %15 = icmp ne i32 %14, 0
  call void @llvm.lifetime.end.p0(i64 4, ptr %3) #5
  ret i1 %15
}