; Function Attrs: mustprogress nofree norecurse nosync nounwind sspstrong willreturn memory(read, inaccessiblemem: none) uwtable
define hidden zeroext i1 @rb_c_method_tracing_currently_enabled(ptr noundef readonly captures(none) %0) local_unnamed_addr #4 {
  %2 = load ptr, ptr @ruby_single_main_ractor, align 8, !tbaa !21
  %.not.i = icmp eq ptr %2, null
  br i1 %.not.i, label %9, label %3

3:                                                ; preds = %1
  %4 = getelementptr i8, ptr %0, i64 48
  %.val = load ptr, ptr %4, align 8, !tbaa !24
  %.not.i.i = icmp eq ptr %.val, null
  br i1 %.not.i.i, label %rb_ec_ractor_hooks.exit, label %5

5:                                                ; preds = %3
  %6 = getelementptr inbounds nuw i8, ptr %.val, i64 24
  %7 = load ptr, ptr %6, align 8, !tbaa !34
  br label %rb_ec_ractor_hooks.exit

rb_ec_ractor_hooks.exit:                          ; preds = %3, %5
  %.0.i.i = phi ptr [ %7, %5 ], [ null, %3 ]
  %8 = getelementptr inbounds nuw i8, ptr %.0.i.i, i64 24
  br label %9

9:                                                ; preds = %1, %rb_ec_ractor_hooks.exit
  %.0.in = phi ptr [ %8, %rb_ec_ractor_hooks.exit ], [ @ruby_vm_event_enabled_global_flags, %1 ]
  %.0 = load i32, ptr %.0.in, align 4, !tbaa !7
  %10 = and i32 %.0, 96
  %11 = icmp ne i32 %10, 0
  ret i1 %11
}